target datalayout = "e-m:e-p270:32:32-p271:32:32-p272:64:64-i64:64-i128:128-f80:128-n8:16:32:64-S128"
target triple = "x86_64-pc-linux-gnu"

%class.Statement = type { ptr, i32, i32, ptr, ptr }

@_ZN9Statement3sidE = dso_local global i32 0, align 4

; Function Attrs: mustprogress nounwind uwtable
define dso_local void @_ZN9StatementC2E14eStatementTypeP5Block(ptr noundef nonnull align 8 dereferenceable(32) %0, i32 noundef %1, ptr noundef %2) unnamed_addr #4 align 2 {
  %4 = alloca ptr, align 8
  %5 = alloca i32, align 4
  %6 = alloca ptr, align 8
  store ptr %0, ptr %4, align 8
  store i32 %1, ptr %5, align 4
  store ptr %2, ptr %6, align 8
  %7 = load ptr, ptr %4, align 8
  store ptr getelementptr inbounds ({ [12 x ptr] }, ptr @_ZTV9Statement, i32 0, i32 0, i32 2), ptr %7, align 8
  %8 = getelementptr inbounds %class.Statement, ptr %7, i32 0, i32 1
  %9 = load i32, ptr %5, align 4
  store i32 %9, ptr %8, align 8
  %10 = getelementptr inbounds %class.Statement, ptr %7, i32 0, i32 3
  %11 = load ptr, ptr %6, align 8
  %12 = icmp ne ptr %11, null
  br i1 %12, label %13, label %17

13:                                               ; preds = %3
  %14 = load ptr, ptr %6, align 8
  %15 = getelementptr inbounds %class.Statement, ptr %14, i32 0, i32 3
  %16 = load ptr, ptr %15, align 8
  br label %18

17:                                               ; preds = %3
  br label %18

18:                                               ; preds = %17, %13
  %19 = phi ptr [ %16, %13 ], [ null, %17 ]
  store ptr %19, ptr %10, align 8
  %20 = getelementptr inbounds %class.Statement, ptr %7, i32 0, i32 4
  %21 = load ptr, ptr %6, align 8
  store ptr %21, ptr %20, align 8
  %22 = load i32, ptr @_ZN9Statement3sidE, align 4
  %23 = getelementptr inbounds %class.Statement, ptr %7, i32 0, i32 2
  store i32 %22, ptr %23, align 4
  %24 = load i32, ptr @_ZN9Statement3sidE, align 4
  %25 = add nsw i32 %24, 1
  store i32 %25, ptr @_ZN9Statement3sidE, align 4
  ret void
}