; Function Attrs: mustprogress nofree norecurse nosync nounwind willreturn memory(readwrite, inaccessiblemem: none) uwtable
define dso_local void @_ZN9StatementC2E14eStatementTypeP5Block(ptr nocapture noundef nonnull writeonly align 8 dereferenceable(32) %0, i32 noundef %1, ptr noundef %2) unnamed_addr #9 align 2 {
  store ptr getelementptr inbounds ({ [12 x ptr] }, ptr @_ZTV9Statement, i64 0, i32 0, i64 2), ptr %0, align 8
  %4 = getelementptr inbounds i8, ptr %0, i64 8
  store i32 %1, ptr %4, align 8
  %.not = icmp eq ptr %2, null
  br i1 %.not, label %8, label %5

5:                                                ; preds = %3
  %6 = getelementptr inbounds i8, ptr %2, i64 16
  %7 = load ptr, ptr %6, align 8
  br label %8

8:                                                ; preds = %3, %5
  %9 = phi ptr [ %7, %5 ], [ null, %3 ]
  %10 = getelementptr inbounds i8, ptr %0, i64 16
  store ptr %9, ptr %10, align 8
  %11 = getelementptr inbounds i8, ptr %0, i64 24
  store ptr %2, ptr %11, align 8
  %12 = load i32, ptr @_ZN9Statement3sidE, align 4
  %13 = getelementptr inbounds i8, ptr %0, i64 12
  store i32 %12, ptr %13, align 4
  %14 = add nsw i32 %12, 1
  store i32 %14, ptr @_ZN9Statement3sidE, align 4
  ret void
}